target datalayout = "e-m:e-p270:32:32-p271:32:32-p272:64:64-i64:64-i128:128-f80:128-n8:16:32:64-S128"
target triple = "x86_64-unknown-linux-gnu"

%"class.v8::IndirectHandleBase" = type { ptr }
%"class.v8::Local" = type { %"class.v8::LocalBase" }
%"class.v8::LocalBase" = type { %"class.v8::IndirectHandleBase" }
%"class.v8::Local.299" = type { %"class.v8::LocalBase.300" }
%"class.v8::LocalBase.300" = type { %"class.v8::IndirectHandleBase" }
%"class.v8::Local.344" = type { %"class.v8::LocalBase.345" }
%"class.v8::LocalBase.345" = type { %"class.v8::IndirectHandleBase" }
%"class.v8::MaybeLocal.351" = type { %"class.v8::Local.344" }
%"class.v8::ReturnValue" = type { ptr }

; Function Attrs: mustprogress nounwind uwtable
define linkonce_odr dso_local noundef ptr @_ZN4node10BaseObject12FromJSObjectEN2v85LocalINS1_5ValueEEE(ptr %value.coerce) #4 comdat align 2 {
entry:
  %this.addr.i25 = alloca ptr, align 8
  %other.addr.i = alloca ptr, align 8
  %this.addr.i.i22 = alloca ptr, align 8
  %other.addr.i.i = alloca ptr, align 8
  %retval.i23 = alloca %"class.v8::Local", align 8
  %that.i = alloca %"class.v8::Local.299", align 8
  %ref.tmp.i = alloca %"class.v8::LocalBase", align 8
  %heap_object_ptr.addr.i.i16 = alloca i64, align 8
  %offset.addr.i.i17 = alloca i32, align 4
  %addr.i.i18 = alloca i64, align 8
  %isolate.addr.i = alloca ptr, align 8
  %heap_object_ptr.addr.i = alloca i64, align 8
  %offset.addr.i = alloca i32, align 4
  %obj.addr.i = alloca i64, align 8
  %heap_object_ptr.addr.i8.i = alloca i64, align 8
  %offset.addr.i9.i = alloca i32, align 4
  %addr.i.i = alloca i64, align 8
  %heap_object_ptr.addr.i.i.i = alloca i64, align 8
  %offset.addr.i.i.i = alloca i32, align 4
  %addr.i.i.i = alloca i64, align 8
  %heap_object_ptr.addr.i.i = alloca i64, align 8
  %offset.addr.i.i = alloca i32, align 4
  %instance_type.addr.i.i = alloca i32, align 4
  %obj.addr.i.i = alloca i64, align 8
  %map.i.i = alloca i64, align 8
  %value.addr.i.i = alloca ptr, align 8
  %retval.i13 = alloca ptr, align 8
  %this.addr.i14 = alloca ptr, align 8
  %index.addr.i = alloca i32, align 4
  %obj.i = alloca i64, align 8
  %instance_type.i = alloca i32, align 4
  %offset.i = alloca i32, align 4
  %isolate.i = alloca ptr, align 8
  %value.i = alloca i64, align 8
  %slot.addr.i = alloca ptr, align 8
  %this.addr.i.i = alloca ptr, align 8
  %this.addr.i11 = alloca ptr, align 8
  %this.addr.i8 = alloca ptr, align 8
  %retval.i = alloca %"class.v8::Local", align 8
  %this.addr.i = alloca ptr, align 8
  %agg.tmp.i = alloca %"class.v8::Local.299", align 8
  %value = alloca %"class.v8::Local.299", align 8
  %obj = alloca %"class.v8::Local", align 8
  %coerce.dive = getelementptr inbounds %"class.v8::Local.299", ptr %value, i32 0, i32 0
  %coerce.dive1 = getelementptr inbounds %"class.v8::LocalBase.300", ptr %coerce.dive, i32 0, i32 0
  %coerce.dive2 = getelementptr inbounds %"class.v8::IndirectHandleBase", ptr %coerce.dive1, i32 0, i32 0
  store ptr %value.coerce, ptr %coerce.dive2, align 8
  store ptr %value, ptr %this.addr.i, align 8
  %this1.i = load ptr, ptr %this.addr.i, align 8
  call void @llvm.memcpy.p0.p0.i64(ptr align 8 %agg.tmp.i, ptr align 8 %this1.i, i64 8, i1 false)
  %0 = load ptr, ptr %agg.tmp.i, align 8
  store ptr %0, ptr %that.i, align 8
  store ptr %ref.tmp.i, ptr %this.addr.i25, align 8
  store ptr %that.i, ptr %other.addr.i, align 8
  %this1.i26 = load ptr, ptr %this.addr.i25, align 8
  %1 = load ptr, ptr %other.addr.i, align 8
  call void @llvm.memcpy.p0.p0.i64(ptr align 8 %this1.i26, ptr align 8 %1, i64 8, i1 false)
  store ptr %retval.i23, ptr %this.addr.i.i22, align 8
  store ptr %ref.tmp.i, ptr %other.addr.i.i, align 8
  %this1.i.i24 = load ptr, ptr %this.addr.i.i22, align 8
  %2 = load ptr, ptr %other.addr.i.i, align 8
  call void @llvm.memcpy.p0.p0.i64(ptr align 8 %this1.i.i24, ptr align 8 %2, i64 8, i1 false)
  %3 = load ptr, ptr %retval.i23, align 8
  store ptr %3, ptr %retval.i, align 8
  %4 = load ptr, ptr %retval.i, align 8
  %coerce.dive3 = getelementptr inbounds %"class.v8::Local", ptr %obj, i32 0, i32 0
  %coerce.dive4 = getelementptr inbounds %"class.v8::LocalBase", ptr %coerce.dive3, i32 0, i32 0
  %coerce.dive5 = getelementptr inbounds %"class.v8::IndirectHandleBase", ptr %coerce.dive4, i32 0, i32 0
  store ptr %4, ptr %coerce.dive5, align 8
  store ptr %obj, ptr %this.addr.i8, align 8
  %this1.i9 = load ptr, ptr %this.addr.i8, align 8
  store ptr %this1.i9, ptr %this.addr.i11, align 8
  %this1.i12 = load ptr, ptr %this.addr.i11, align 8
  store ptr %this1.i12, ptr %this.addr.i.i, align 8
  %this1.i.i = load ptr, ptr %this.addr.i.i, align 8
  %5 = load ptr, ptr %this1.i.i, align 8
  store ptr %5, ptr %slot.addr.i, align 8
  %6 = load ptr, ptr %slot.addr.i, align 8
  store ptr %6, ptr %this.addr.i14, align 8
  store i32 1, ptr %index.addr.i, align 4
  %this1.i15 = load ptr, ptr %this.addr.i14, align 8
  store ptr %this1.i15, ptr %value.addr.i.i, align 8
  %7 = load ptr, ptr %value.addr.i.i, align 8
  %8 = load i64, ptr %7, align 8
  store i64 %8, ptr %obj.i, align 8
  %9 = load i64, ptr %obj.i, align 8
  store i64 %9, ptr %obj.addr.i.i, align 8
  %10 = load i64, ptr %obj.addr.i.i, align 8
  store i64 %10, ptr %heap_object_ptr.addr.i.i, align 8
  store i32 0, ptr %offset.addr.i.i, align 4
  %11 = load i64, ptr %heap_object_ptr.addr.i.i, align 8
  %12 = load i32, ptr %offset.addr.i.i, align 4
  store i64 %11, ptr %heap_object_ptr.addr.i.i.i, align 8
  store i32 %12, ptr %offset.addr.i.i.i, align 4
  %13 = load i64, ptr %heap_object_ptr.addr.i.i.i, align 8
  %14 = load i32, ptr %offset.addr.i.i.i, align 4
  %conv.i.i.i = sext i32 %14 to i64
  %add.i.i.i = add i64 %13, %conv.i.i.i
  %sub.i.i.i = sub i64 %add.i.i.i, 1
  store i64 %sub.i.i.i, ptr %addr.i.i.i, align 8
  %15 = load i64, ptr %addr.i.i.i, align 8
  %16 = inttoptr i64 %15 to ptr
  %17 = load i64, ptr %16, align 8
  store i64 %17, ptr %map.i.i, align 8
  %18 = load i64, ptr %map.i.i, align 8
  store i64 %18, ptr %heap_object_ptr.addr.i8.i, align 8
  store i32 12, ptr %offset.addr.i9.i, align 4
  %19 = load i64, ptr %heap_object_ptr.addr.i8.i, align 8
  %20 = load i32, ptr %offset.addr.i9.i, align 4
  %conv.i10.i = sext i32 %20 to i64
  %add.i.i = add i64 %19, %conv.i10.i
  %sub.i11.i = sub i64 %add.i.i, 1
  store i64 %sub.i11.i, ptr %addr.i.i, align 8
  %21 = load i64, ptr %addr.i.i, align 8
  %22 = inttoptr i64 %21 to ptr
  %23 = load i16, ptr %22, align 2
  %conv.i.i = zext i16 %23 to i32
  store i32 %conv.i.i, ptr %instance_type.i, align 4
  %24 = load i32, ptr %instance_type.i, align 4
  store i32 %24, ptr %instance_type.addr.i.i, align 4
  %25 = load i32, ptr %instance_type.addr.i.i, align 4
  %cmp.i.i = icmp eq i32 %25, 1040
  br i1 %cmp.i.i, label %_ZN2v88internal9Internals20CanHaveInternalFieldEi.exit.i, label %lor.rhs.i.i

lor.rhs.i.i:                                      ; preds = %entry
  %26 = load i32, ptr %instance_type.addr.i.i, align 4
  %sub.i.i = sub i32 %26, 1057
  %cmp1.i.i = icmp ule i32 %sub.i.i, 1001
  br label %_ZN2v88internal9Internals20CanHaveInternalFieldEi.exit.i

_ZN2v88internal9Internals20CanHaveInternalFieldEi.exit.i: ; preds = %lor.rhs.i.i, %entry
  %27 = phi i1 [ true, %entry ], [ %cmp1.i.i, %lor.rhs.i.i ]
  br i1 %27, label %if.then.i, label %if.end.i

if.then.i:                                        ; preds = %_ZN2v88internal9Internals20CanHaveInternalFieldEi.exit.i
  %28 = load i32, ptr %index.addr.i, align 4
  %mul.i = mul nsw i32 8, %28
  %add.i = add nsw i32 24, %mul.i
  store i32 %add.i, ptr %offset.i, align 4
  %29 = load i64, ptr %obj.i, align 8
  store i64 %29, ptr %obj.addr.i, align 8
  store ptr null, ptr %isolate.i, align 8
  %30 = load ptr, ptr %isolate.i, align 8
  %31 = load i64, ptr %obj.i, align 8
  %32 = load i32, ptr %offset.i, align 4
  store ptr %30, ptr %isolate.addr.i, align 8
  store i64 %31, ptr %heap_object_ptr.addr.i, align 8
  store i32 %32, ptr %offset.addr.i, align 4
  %33 = load i64, ptr %heap_object_ptr.addr.i, align 8
  %34 = load i32, ptr %offset.addr.i, align 4
  store i64 %33, ptr %heap_object_ptr.addr.i.i16, align 8
  store i32 %34, ptr %offset.addr.i.i17, align 4
  %35 = load i64, ptr %heap_object_ptr.addr.i.i16, align 8
  %36 = load i32, ptr %offset.addr.i.i17, align 4
  %conv.i.i19 = sext i32 %36 to i64
  %add.i.i20 = add i64 %35, %conv.i.i19
  %sub.i.i21 = sub i64 %add.i.i20, 1
  store i64 %sub.i.i21, ptr %addr.i.i18, align 8
  %37 = load i64, ptr %addr.i.i18, align 8
  %38 = inttoptr i64 %37 to ptr
  %39 = load i64, ptr %38, align 8
  store i64 %39, ptr %value.i, align 8
  %40 = load i64, ptr %value.i, align 8
  %41 = inttoptr i64 %40 to ptr
  store ptr %41, ptr %retval.i13, align 8
  br label %_ZN2v86Object34GetAlignedPointerFromInternalFieldEi.exit

if.end.i:                                         ; preds = %_ZN2v88internal9Internals20CanHaveInternalFieldEi.exit.i
  %42 = load i32, ptr %index.addr.i, align 4
  %call7.i = call noundef ptr @_ZN2v86Object38SlowGetAlignedPointerFromInternalFieldEi(ptr noundef nonnull align 1 dereferenceable(1) %this1.i15, i32 noundef %42) #3
  store ptr %call7.i, ptr %retval.i13, align 8
  br label %_ZN2v86Object34GetAlignedPointerFromInternalFieldEi.exit

_ZN2v86Object34GetAlignedPointerFromInternalFieldEi.exit: ; preds = %if.end.i, %if.then.i
  %43 = load ptr, ptr %retval.i13, align 8
  ret ptr %43
}

; Function Attrs: mustprogress nounwind uwtable
define dso_local void @_ZN4node2fs10FileHandle5CloseERKN2v820FunctionCallbackInfoINS2_5ValueEEE(ptr noundef nonnull align 8 dereferenceable(20) %args) #4 align 2 {
entry:
  %this.addr.i63 = alloca ptr, align 8
  %slot.addr.i64 = alloca ptr, align 8
  %this.addr.i.i58 = alloca ptr, align 8
  %this.addr.i59 = alloca ptr, align 8
  %this.addr.i.i54 = alloca ptr, align 8
  %this.addr.i55 = alloca ptr, align 8
  %this.addr.i.i.i = alloca ptr, align 8
  %location.addr.i.i.i = alloca ptr, align 8
  %this.addr.i.i50 = alloca ptr, align 8
  %location.addr.i.i = alloca ptr, align 8
  %retval.i51 = alloca %"class.v8::LocalBase", align 8
  %slot.addr.i52 = alloca ptr, align 8
  %this.addr.i.i46 = alloca ptr, align 8
  %other.addr.i.i = alloca ptr, align 8
  %retval.i47 = alloca %"class.v8::Local", align 8
  %slot.addr.i = alloca ptr, align 8
  %ref.tmp.i = alloca %"class.v8::LocalBase", align 8
  %this.addr.i44 = alloca ptr, align 8
  %other.addr.i = alloca ptr, align 8
  %this.addr.i42 = alloca ptr, align 8
  %this.addr.i.i38 = alloca ptr, align 8
  %isolate.addr.i.i.i = alloca ptr, align 8
  %index.addr.i.i.i = alloca i32, align 4
  %addr.i.i.i = alloca i64, align 8
  %isolate.addr.i.i = alloca ptr, align 8
  %index.addr.i.i = alloca i32, align 4
  %this.addr.i39 = alloca ptr, align 8
  %this.addr.i.i = alloca ptr, align 8
  %handle.i = alloca %"class.v8::Local.344", align 8
  %this.addr.i35 = alloca ptr, align 8
  %retval.i32 = alloca %"class.v8::ReturnValue", align 8
  %this.addr.i33 = alloca ptr, align 8
  %this.addr.i29 = alloca ptr, align 8
  %out.addr.i = alloca ptr, align 8
  %this.addr.i27 = alloca ptr, align 8
  %retval.i = alloca %"class.v8::Local", align 8
  %this.addr.i26 = alloca ptr, align 8
  %that.i = alloca %"class.v8::Local", align 8
  %this.addr.i = alloca ptr, align 8
  %args.addr = alloca ptr, align 8
  %fd = alloca ptr, align 8
  %agg.tmp = alloca %"class.v8::Local.299", align 8
  %agg.tmp1 = alloca %"class.v8::Local", align 8
  %ret = alloca %"class.v8::Local.344", align 8
  %ref.tmp = alloca %"class.v8::MaybeLocal.351", align 8
  %ref.tmp19 = alloca %"class.v8::ReturnValue", align 8
  %agg.tmp22 = alloca %"class.v8::Local.344", align 8
  store ptr %args, ptr %args.addr, align 8
  br label %do.body

do.body:                                          ; preds = %entry
  %0 = load ptr, ptr %args.addr, align 8
  store ptr %0, ptr %this.addr.i26, align 8
  %this1.i = load ptr, ptr %this.addr.i26, align 8
  %1 = load ptr, ptr %this1.i, align 8
  store ptr %1, ptr %slot.addr.i, align 8
  %2 = load ptr, ptr %slot.addr.i, align 8
  store ptr %2, ptr %slot.addr.i52, align 8
  %3 = load ptr, ptr %slot.addr.i52, align 8
  store ptr %retval.i51, ptr %this.addr.i.i50, align 8
  store ptr %3, ptr %location.addr.i.i, align 8
  %this1.i.i53 = load ptr, ptr %this.addr.i.i50, align 8
  %4 = load ptr, ptr %location.addr.i.i, align 8
  store ptr %this1.i.i53, ptr %this.addr.i.i.i, align 8
  store ptr %4, ptr %location.addr.i.i.i, align 8
  %this1.i.i.i = load ptr, ptr %this.addr.i.i.i, align 8
  %5 = load ptr, ptr %location.addr.i.i.i, align 8
  store ptr %5, ptr %this1.i.i.i, align 8
  %6 = load ptr, ptr %retval.i51, align 8
  store ptr %6, ptr %ref.tmp.i, align 8
  store ptr %retval.i47, ptr %this.addr.i.i46, align 8
  store ptr %ref.tmp.i, ptr %other.addr.i.i, align 8
  %this1.i.i49 = load ptr, ptr %this.addr.i.i46, align 8
  %7 = load ptr, ptr %other.addr.i.i, align 8
  call void @llvm.memcpy.p0.p0.i64(ptr align 8 %this1.i.i49, ptr align 8 %7, i64 8, i1 false)
  %8 = load ptr, ptr %retval.i47, align 8
  store ptr %8, ptr %retval.i, align 8
  %9 = load ptr, ptr %retval.i, align 8
  %coerce.dive = getelementptr inbounds %"class.v8::Local", ptr %agg.tmp1, i32 0, i32 0
  %coerce.dive2 = getelementptr inbounds %"class.v8::LocalBase", ptr %coerce.dive, i32 0, i32 0
  %coerce.dive3 = getelementptr inbounds %"class.v8::IndirectHandleBase", ptr %coerce.dive2, i32 0, i32 0
  store ptr %9, ptr %coerce.dive3, align 8
  %coerce.dive4 = getelementptr inbounds %"class.v8::Local", ptr %agg.tmp1, i32 0, i32 0
  %coerce.dive5 = getelementptr inbounds %"class.v8::LocalBase", ptr %coerce.dive4, i32 0, i32 0
  %coerce.dive6 = getelementptr inbounds %"class.v8::IndirectHandleBase", ptr %coerce.dive5, i32 0, i32 0
  %10 = load ptr, ptr %coerce.dive6, align 8
  store ptr %10, ptr %that.i, align 8
  store ptr %agg.tmp, ptr %this.addr.i, align 8
  %this3.i = load ptr, ptr %this.addr.i, align 8
  store ptr %this3.i, ptr %this.addr.i44, align 8
  store ptr %that.i, ptr %other.addr.i, align 8
  %this1.i45 = load ptr, ptr %this.addr.i44, align 8
  %11 = load ptr, ptr %other.addr.i, align 8
  call void @llvm.memcpy.p0.p0.i64(ptr align 8 %this1.i45, ptr align 8 %11, i64 8, i1 false)
  %coerce.dive7 = getelementptr inbounds %"class.v8::Local.299", ptr %agg.tmp, i32 0, i32 0
  %coerce.dive8 = getelementptr inbounds %"class.v8::LocalBase.300", ptr %coerce.dive7, i32 0, i32 0
  %coerce.dive9 = getelementptr inbounds %"class.v8::IndirectHandleBase", ptr %coerce.dive8, i32 0, i32 0
  %12 = load ptr, ptr %coerce.dive9, align 8
  %call10 = call noundef ptr @_ZN4node10BaseObject12FromJSObjectEN2v85LocalINS1_5ValueEEE(ptr %12)
  store ptr %call10, ptr %fd, align 8
  %13 = load ptr, ptr %fd, align 8
  %cmp = icmp eq ptr %13, null
  br i1 %cmp, label %if.then, label %if.end

if.then:                                          ; preds = %do.body
  br label %return

if.end:                                           ; preds = %do.body
  br label %do.end

do.end:                                           ; preds = %if.end
  store ptr %ret, ptr %this.addr.i27, align 8
  %this1.i28 = load ptr, ptr %this.addr.i27, align 8
  store ptr %this1.i28, ptr %this.addr.i55, align 8
  %this1.i56 = load ptr, ptr %this.addr.i55, align 8
  store ptr %this1.i56, ptr %this.addr.i.i54, align 8
  %this1.i.i57 = load ptr, ptr %this.addr.i.i54, align 8
  store ptr null, ptr %this1.i.i57, align 8
  %14 = load ptr, ptr %fd, align 8
  %call11 = call ptr @_ZN4node2fs10FileHandle12ClosePromiseEv(ptr noundef nonnull align 8 dereferenceable(160) %14)
  %coerce.dive12 = getelementptr inbounds %"class.v8::MaybeLocal.351", ptr %ref.tmp, i32 0, i32 0
  %coerce.dive13 = getelementptr inbounds %"class.v8::Local.344", ptr %coerce.dive12, i32 0, i32 0
  %coerce.dive14 = getelementptr inbounds %"class.v8::LocalBase.345", ptr %coerce.dive13, i32 0, i32 0
  %coerce.dive15 = getelementptr inbounds %"class.v8::IndirectHandleBase", ptr %coerce.dive14, i32 0, i32 0
  store ptr %call11, ptr %coerce.dive15, align 8
  store ptr %ref.tmp, ptr %this.addr.i29, align 8
  store ptr %ret, ptr %out.addr.i, align 8
  %this1.i30 = load ptr, ptr %this.addr.i29, align 8
  %15 = load ptr, ptr %out.addr.i, align 8
  call void @llvm.memcpy.p0.p0.i64(ptr align 8 %15, ptr align 8 %this1.i30, i64 8, i1 false)
  store ptr %this1.i30, ptr %this.addr.i59, align 8
  %this1.i60 = load ptr, ptr %this.addr.i59, align 8
  store ptr %this1.i60, ptr %this.addr.i.i58, align 8
  %this1.i.i61 = load ptr, ptr %this.addr.i.i58, align 8
  %16 = load ptr, ptr %this1.i.i61, align 8
  %cmp.i.i62 = icmp eq ptr %16, null
  %lnot.i = xor i1 %cmp.i.i62, true
  %lnot = xor i1 %lnot.i, true
  br i1 %lnot, label %if.then17, label %if.end18

if.then17:                                        ; preds = %do.end
  br label %return

if.end18:                                         ; preds = %do.end
  %17 = load ptr, ptr %args.addr, align 8
  store ptr %17, ptr %this.addr.i33, align 8
  %this1.i34 = load ptr, ptr %this.addr.i33, align 8
  %18 = load ptr, ptr %this1.i34, align 8
  %arrayidx.i = getelementptr inbounds i64, ptr %18, i64 3
  store ptr %retval.i32, ptr %this.addr.i63, align 8
  store ptr %arrayidx.i, ptr %slot.addr.i64, align 8
  %this1.i65 = load ptr, ptr %this.addr.i63, align 8
  %19 = load ptr, ptr %slot.addr.i64, align 8
  store ptr %19, ptr %this1.i65, align 8
  %20 = load ptr, ptr %retval.i32, align 8
  %coerce.dive21 = getelementptr inbounds %"class.v8::ReturnValue", ptr %ref.tmp19, i32 0, i32 0
  store ptr %20, ptr %coerce.dive21, align 8
  call void @llvm.memcpy.p0.p0.i64(ptr align 8 %agg.tmp22, ptr align 8 %ret, i64 8, i1 false)
  %coerce.dive23 = getelementptr inbounds %"class.v8::Local.344", ptr %agg.tmp22, i32 0, i32 0
  %coerce.dive24 = getelementptr inbounds %"class.v8::LocalBase.345", ptr %coerce.dive23, i32 0, i32 0
  %coerce.dive25 = getelementptr inbounds %"class.v8::IndirectHandleBase", ptr %coerce.dive24, i32 0, i32 0
  %21 = load ptr, ptr %coerce.dive25, align 8
  store ptr %21, ptr %handle.i, align 8
  store ptr %ref.tmp19, ptr %this.addr.i35, align 8
  %this3.i36 = load ptr, ptr %this.addr.i35, align 8
  store ptr %handle.i, ptr %this.addr.i.i, align 8
  %this1.i.i = load ptr, ptr %this.addr.i.i, align 8
  %22 = load ptr, ptr %this1.i.i, align 8
  %cmp.i.i = icmp eq ptr %22, null
  br i1 %cmp.i.i, label %if.then.i, label %if.else.i

if.then.i:                                        ; preds = %if.end18
  store ptr %this3.i36, ptr %this.addr.i39, align 8
  %this1.i40 = load ptr, ptr %this.addr.i39, align 8
  store ptr %this1.i40, ptr %this.addr.i.i38, align 8
  %this1.i.i41 = load ptr, ptr %this.addr.i.i38, align 8
  %23 = load ptr, ptr %this1.i.i41, align 8
  %arrayidx.i.i = getelementptr inbounds i64, ptr %23, i64 -2
  %24 = load ptr, ptr %arrayidx.i.i, align 8
  store ptr %24, ptr %isolate.addr.i.i, align 8
  store i32 5, ptr %index.addr.i.i, align 4
  %25 = load ptr, ptr %isolate.addr.i.i, align 8
  %26 = load i32, ptr %index.addr.i.i, align 4
  store ptr %25, ptr %isolate.addr.i.i.i, align 8
  store i32 %26, ptr %index.addr.i.i.i, align 4
  %27 = load ptr, ptr %isolate.addr.i.i.i, align 8
  %28 = ptrtoint ptr %27 to i64
  %add.i.i.i = add i64 %28, 576
  %29 = load i32, ptr %index.addr.i.i.i, align 4
  %mul.i.i.i = mul nsw i32 %29, 8
  %conv.i.i.i = sext i32 %mul.i.i.i to i64
  %add1.i.i.i = add i64 %add.i.i.i, %conv.i.i.i
  store i64 %add1.i.i.i, ptr %addr.i.i.i, align 8
  %30 = load i64, ptr %addr.i.i.i, align 8
  %31 = inttoptr i64 %30 to ptr
  %32 = load i64, ptr %31, align 8
  %33 = load ptr, ptr %this3.i36, align 8
  store i64 %32, ptr %33, align 8
  br label %_ZN2v811ReturnValueINS_5ValueEE3SetINS_7PromiseEEEvNS_5LocalIT_EE.exit

if.else.i:                                        ; preds = %if.end18
  store ptr %handle.i, ptr %this.addr.i42, align 8
  %this1.i43 = load ptr, ptr %this.addr.i42, align 8
  %34 = load ptr, ptr %this1.i43, align 8
  %35 = load i64, ptr %34, align 8
  %36 = load ptr, ptr %this3.i36, align 8
  store i64 %35, ptr %36, align 8
  br label %_ZN2v811ReturnValueINS_5ValueEE3SetINS_7PromiseEEEvNS_5LocalIT_EE.exit

_ZN2v811ReturnValueINS_5ValueEE3SetINS_7PromiseEEEvNS_5LocalIT_EE.exit: ; preds = %if.else.i, %if.then.i
  br label %return

return:                                           ; preds = %_ZN2v811ReturnValueINS_5ValueEE3SetINS_7PromiseEEEvNS_5LocalIT_EE.exit, %if.then17, %if.then
  ret void
}